target datalayout = "e-m:e-p270:32:32-p271:32:32-p272:64:64-i64:64-i128:128-f80:128-n8:16:32:64-S128"
target triple = "x86_64-unknown-linux-gnu"

%"class.Imath_3_2::Vec2" = type { i32, i32 }
%"class.Imf_3_2::Image" = type { ptr, %"class.Imath_3_2::Box", i32, i32, %"class.std::map", %"class.Imf_3_2::Array2D" }
%"class.Imath_3_2::Box" = type { %"class.Imath_3_2::Vec2", %"class.Imath_3_2::Vec2" }
%"class.std::map" = type { %"class.std::_Rb_tree" }
%"class.std::_Rb_tree" = type { %"struct.std::_Rb_tree<std::__cxx11::basic_string<char>, std::pair<const std::__cxx11::basic_string<char>, Imf_3_2::Image::ChannelInfo>, std::_Select1st<std::pair<const std::__cxx11::basic_string<char>, Imf_3_2::Image::ChannelInfo>>, std::less<std::__cxx11::basic_string<char>>>::_Rb_tree_impl" }
%"struct.std::_Rb_tree<std::__cxx11::basic_string<char>, std::pair<const std::__cxx11::basic_string<char>, Imf_3_2::Image::ChannelInfo>, std::_Select1st<std::pair<const std::__cxx11::basic_string<char>, Imf_3_2::Image::ChannelInfo>>, std::less<std::__cxx11::basic_string<char>>>::_Rb_tree_impl" = type { %"struct.std::_Rb_tree_key_compare", %"struct.std::_Rb_tree_header" }
%"struct.std::_Rb_tree_key_compare" = type { %"struct.std::less" }
%"struct.std::less" = type { i8 }
%"struct.std::_Rb_tree_header" = type { %"struct.std::_Rb_tree_node_base", i64 }
%"struct.std::_Rb_tree_node_base" = type { i32, ptr, ptr, ptr }
%"class.Imf_3_2::Array2D" = type { i64, i64, ptr }
%"class.std::__cxx11::basic_stringstream" = type { %"class.std::basic_iostream.base", %"class.std::__cxx11::basic_stringbuf", %"class.std::basic_ios" }
%"class.std::basic_iostream.base" = type { %"class.std::basic_istream.base", %"class.std::basic_ostream.base" }
%"class.std::basic_istream.base" = type { ptr, i64 }
%"class.std::basic_ostream.base" = type { ptr }
%"class.std::__cxx11::basic_stringbuf" = type { %"class.std::basic_streambuf", i32, %"class.std::__cxx11::basic_string" }
%"class.std::basic_streambuf" = type { ptr, ptr, ptr, ptr, ptr, ptr, ptr, %"class.std::locale" }
%"class.std::locale" = type { ptr }
%"class.std::__cxx11::basic_string" = type { %"struct.std::__cxx11::basic_string<char>::_Alloc_hider", i64, %union.anon }
%"struct.std::__cxx11::basic_string<char>::_Alloc_hider" = type { ptr }
%union.anon = type { i64, [8 x i8] }
%"class.std::basic_ios" = type { %"class.std::ios_base", ptr, i8, i8, ptr, ptr, ptr, ptr }
%"class.std::ios_base" = type { ptr, i64, i64, i32, i32, i32, ptr, %"struct.std::ios_base::_Words", [8 x %"struct.std::ios_base::_Words"], i32, ptr, %"class.std::locale" }
%"struct.std::ios_base::_Words" = type { ptr, i64 }

@_ZTIN7Iex_3_26ArgExcE = external constant ptr
@.str.4 = private unnamed_addr constant [55 x i8] c"Cannot get level width for invalid image level number \00", align 1
@.str.5 = private unnamed_addr constant [2 x i8] c".\00", align 1

; Function Attrs: mustprogress nounwind uwtable
define linkonce_odr noundef nonnull align 4 dereferenceable(4) ptr @_ZSt3maxIiERKT_S2_S2_(ptr noundef nonnull align 4 dereferenceable(4) %__a, ptr noundef nonnull align 4 dereferenceable(4) %__b) #5 comdat {
entry:
  %retval = alloca ptr, align 8
  %__a.addr = alloca ptr, align 8
  %__b.addr = alloca ptr, align 8
  store ptr %__a, ptr %__a.addr, align 8
  store ptr %__b, ptr %__b.addr, align 8
  %0 = load ptr, ptr %__a.addr, align 8
  %1 = load i32, ptr %0, align 4
  %2 = load ptr, ptr %__b.addr, align 8
  %3 = load i32, ptr %2, align 4
  %cmp = icmp slt i32 %1, %3
  br i1 %cmp, label %if.then, label %if.end

if.then:                                          ; preds = %entry
  %4 = load ptr, ptr %__b.addr, align 8
  store ptr %4, ptr %retval, align 8
  br label %return

if.end:                                           ; preds = %entry
  %5 = load ptr, ptr %__a.addr, align 8
  store ptr %5, ptr %retval, align 8
  br label %return

return:                                           ; preds = %if.end, %if.then
  %6 = load ptr, ptr %retval, align 8
  ret ptr %6
}

; Function Attrs: mustprogress nounwind uwtable
define linkonce_odr hidden noundef i64 @_ZNK7Imf_3_27Array2DIPNS_10ImageLevelEE5widthEv(ptr noundef nonnull align 8 dereferenceable(24) %this) #5 comdat align 2 {
entry:
  %this.addr = alloca ptr, align 8
  store ptr %this, ptr %this.addr, align 8
  %this1 = load ptr, ptr %this.addr, align 8
  %_sizeY = getelementptr inbounds %"class.Imf_3_2::Array2D", ptr %this1, i32 0, i32 1
  %0 = load i64, ptr %_sizeY, align 8
  ret i64 %0
}

; Function Attrs: mustprogress uwtable
define internal noundef i32 @_ZN7Imf_3_212_GLOBAL__N_19levelSizeEiiiNS_17LevelRoundingModeE(i32 noundef %min, i32 noundef %max, i32 noundef %l, i32 noundef %levelRoundingMode) #4 {
entry:
  %retval = alloca i32, align 4
  %min.addr = alloca i32, align 4
  %max.addr = alloca i32, align 4
  %l.addr = alloca i32, align 4
  %levelRoundingMode.addr = alloca i32, align 4
  %a = alloca i32, align 4
  %b = alloca i32, align 4
  %size = alloca i32, align 4
  %ref.tmp = alloca i32, align 4
  store i32 %min, ptr %min.addr, align 4
  store i32 %max, ptr %max.addr, align 4
  store i32 %l, ptr %l.addr, align 4
  store i32 %levelRoundingMode, ptr %levelRoundingMode.addr, align 4
  %0 = load i32, ptr %max.addr, align 4
  %1 = load i32, ptr %min.addr, align 4
  %cmp = icmp slt i32 %0, %1
  br i1 %cmp, label %if.then, label %if.end

if.then:                                          ; preds = %entry
  store i32 0, ptr %retval, align 4
  br label %return

if.end:                                           ; preds = %entry
  %2 = load i32, ptr %max.addr, align 4
  %3 = load i32, ptr %min.addr, align 4
  %sub = sub nsw i32 %2, %3
  %add = add nsw i32 %sub, 1
  store i32 %add, ptr %a, align 4
  %4 = load i32, ptr %l.addr, align 4
  %shl = shl i32 1, %4
  store i32 %shl, ptr %b, align 4
  %5 = load i32, ptr %a, align 4
  %6 = load i32, ptr %b, align 4
  %div = sdiv i32 %5, %6
  store i32 %div, ptr %size, align 4
  %7 = load i32, ptr %levelRoundingMode.addr, align 4
  %cmp1 = icmp eq i32 %7, 1
  br i1 %cmp1, label %land.lhs.true, label %if.end5

land.lhs.true:                                    ; preds = %if.end
  %8 = load i32, ptr %size, align 4
  %9 = load i32, ptr %b, align 4
  %mul = mul nsw i32 %8, %9
  %10 = load i32, ptr %a, align 4
  %cmp2 = icmp slt i32 %mul, %10
  br i1 %cmp2, label %if.then3, label %if.end5

if.then3:                                         ; preds = %land.lhs.true
  %11 = load i32, ptr %size, align 4
  %add4 = add nsw i32 %11, 1
  store i32 %add4, ptr %size, align 4
  br label %if.end5

if.end5:                                          ; preds = %if.then3, %land.lhs.true, %if.end
  store i32 1, ptr %ref.tmp, align 4
  %call = call noundef nonnull align 4 dereferenceable(4) ptr @_ZSt3maxIiERKT_S2_S2_(ptr noundef nonnull align 4 dereferenceable(4) %size, ptr noundef nonnull align 4 dereferenceable(4) %ref.tmp)
  %12 = load i32, ptr %call, align 4
  store i32 %12, ptr %retval, align 4
  br label %return

return:                                           ; preds = %if.end5, %if.then
  %13 = load i32, ptr %retval, align 4
  ret i32 %13
}

; Function Attrs: mustprogress uwtable
define noundef i32 @_ZNK7Imf_3_25Image10numXLevelsEv(ptr noundef nonnull align 8 dereferenceable(104) %this) #4 align 2 {
entry:
  %this.addr = alloca ptr, align 8
  store ptr %this, ptr %this.addr, align 8
  %this1 = load ptr, ptr %this.addr, align 8
  %_levels = getelementptr inbounds %"class.Imf_3_2::Image", ptr %this1, i32 0, i32 5
  %call = call noundef i64 @_ZNK7Imf_3_27Array2DIPNS_10ImageLevelEE5widthEv(ptr noundef nonnull align 8 dereferenceable(24) %_levels)
  %conv = trunc i64 %call to i32
  ret i32 %conv
}

; Function Attrs: mustprogress uwtable
define noundef i32 @_ZNK7Imf_3_25Image10levelWidthEi(ptr noundef nonnull align 8 dereferenceable(104) %this, i32 noundef %lx) #4 align 2 personality ptr @__gxx_personality_v0 {
entry:
  %this.addr = alloca ptr, align 8
  %lx.addr = alloca i32, align 4
  %_iex_throw_s = alloca %"class.std::__cxx11::basic_stringstream", align 8
  %exn.slot = alloca ptr, align 8
  %ehselector.slot = alloca i32, align 4
  store ptr %this, ptr %this.addr, align 8
  store i32 %lx, ptr %lx.addr, align 4
  %this1 = load ptr, ptr %this.addr, align 8
  %0 = load i32, ptr %lx.addr, align 4
  %cmp = icmp slt i32 %0, 0
  br i1 %cmp, label %if.then, label %lor.lhs.false

lor.lhs.false:                                    ; preds = %entry
  %1 = load i32, ptr %lx.addr, align 4
  %call = call noundef i32 @_ZNK7Imf_3_25Image10numXLevelsEv(ptr noundef nonnull align 8 dereferenceable(104) %this1)
  %cmp2 = icmp sge i32 %1, %call
  br i1 %cmp2, label %if.then, label %if.end

if.then:                                          ; preds = %lor.lhs.false, %entry
  br label %do.body

do.body:                                          ; preds = %if.then
  call void @_Z13iex_debugTrapv()
  call void @_ZNSt7__cxx1118basic_stringstreamIcSt11char_traitsIcESaIcEEC1Ev(ptr noundef nonnull align 8 dereferenceable(128) %_iex_throw_s)
  %add.ptr = getelementptr inbounds i8, ptr %_iex_throw_s, i64 16
  %call3 = invoke noundef nonnull align 8 dereferenceable(8) ptr @_ZStlsISt11char_traitsIcEERSt13basic_ostreamIcT_ES5_PKc(ptr noundef nonnull align 8 dereferenceable(8) %add.ptr, ptr noundef @.str.4)
          to label %invoke.cont unwind label %lpad

invoke.cont:                                      ; preds = %do.body
  %2 = load i32, ptr %lx.addr, align 4
  %call5 = invoke noundef nonnull align 8 dereferenceable(8) ptr @_ZNSolsEi(ptr noundef nonnull align 8 dereferenceable(8) %call3, i32 noundef %2)
          to label %invoke.cont4 unwind label %lpad

invoke.cont4:                                     ; preds = %invoke.cont
  %call7 = invoke noundef nonnull align 8 dereferenceable(8) ptr @_ZStlsISt11char_traitsIcEERSt13basic_ostreamIcT_ES5_PKc(ptr noundef nonnull align 8 dereferenceable(8) %call5, ptr noundef @.str.5)
          to label %invoke.cont6 unwind label %lpad

invoke.cont6:                                     ; preds = %invoke.cont4
  %exception = call ptr @__cxa_allocate_exception(i64 72) #3
  invoke void @_ZN7Iex_3_26ArgExcC1ERNSt7__cxx1118basic_stringstreamIcSt11char_traitsIcESaIcEEE(ptr noundef nonnull align 8 dereferenceable(72) %exception, ptr noundef nonnull align 8 dereferenceable(128) %_iex_throw_s)
          to label %invoke.cont9 unwind label %lpad8

invoke.cont9:                                     ; preds = %invoke.cont6
  invoke void @__cxa_throw(ptr %exception, ptr @_ZTIN7Iex_3_26ArgExcE, ptr @_ZN7Iex_3_26ArgExcD1Ev) #17
          to label %unreachable unwind label %lpad

lpad:                                             ; preds = %invoke.cont9, %invoke.cont4, %invoke.cont, %do.body
  %3 = landingpad { ptr, i32 }
          cleanup
  %4 = extractvalue { ptr, i32 } %3, 0
  store ptr %4, ptr %exn.slot, align 8
  %5 = extractvalue { ptr, i32 } %3, 1
  store i32 %5, ptr %ehselector.slot, align 4
  br label %ehcleanup

lpad8:                                            ; preds = %invoke.cont6
  %6 = landingpad { ptr, i32 }
          cleanup
  %7 = extractvalue { ptr, i32 } %6, 0
  store ptr %7, ptr %exn.slot, align 8
  %8 = extractvalue { ptr, i32 } %6, 1
  store i32 %8, ptr %ehselector.slot, align 4
  call void @__cxa_free_exception(ptr %exception) #3
  br label %ehcleanup

ehcleanup:                                        ; preds = %lpad8, %lpad
  call void @_ZNSt7__cxx1118basic_stringstreamIcSt11char_traitsIcESaIcEED1Ev(ptr noundef nonnull align 8 dereferenceable(128) %_iex_throw_s) #3
  br label %eh.resume

do.end:                                           ; No predecessors!
  br label %if.end

if.end:                                           ; preds = %do.end, %lor.lhs.false
  %_dataWindow = getelementptr inbounds %"class.Imf_3_2::Image", ptr %this1, i32 0, i32 1
  %min = getelementptr inbounds %"class.Imath_3_2::Box", ptr %_dataWindow, i32 0, i32 0
  %x = getelementptr inbounds %"class.Imath_3_2::Vec2", ptr %min, i32 0, i32 0
  %9 = load i32, ptr %x, align 8
  %_dataWindow10 = getelementptr inbounds %"class.Imf_3_2::Image", ptr %this1, i32 0, i32 1
  %max = getelementptr inbounds %"class.Imath_3_2::Box", ptr %_dataWindow10, i32 0, i32 1
  %x11 = getelementptr inbounds %"class.Imath_3_2::Vec2", ptr %max, i32 0, i32 0
  %10 = load i32, ptr %x11, align 8
  %11 = load i32, ptr %lx.addr, align 4
  %_levelRoundingMode = getelementptr inbounds %"class.Imf_3_2::Image", ptr %this1, i32 0, i32 3
  %12 = load i32, ptr %_levelRoundingMode, align 4
  %call12 = call noundef i32 @_ZN7Imf_3_212_GLOBAL__N_19levelSizeEiiiNS_17LevelRoundingModeE(i32 noundef %9, i32 noundef %10, i32 noundef %11, i32 noundef %12)
  ret i32 %call12

eh.resume:                                        ; preds = %ehcleanup
  %exn = load ptr, ptr %exn.slot, align 8
  %sel = load i32, ptr %ehselector.slot, align 4
  %lpad.val = insertvalue { ptr, i32 } poison, ptr %exn, 0
  %lpad.val13 = insertvalue { ptr, i32 } %lpad.val, i32 %sel, 1
  resume { ptr, i32 } %lpad.val13

unreachable:                                      ; preds = %invoke.cont9
  unreachable
}