; Function Attrs: mustprogress uwtable
define noundef i32 @_ZNK7Imf_3_25Image10levelWidthEi(ptr nocapture noundef nonnull readonly align 8 dereferenceable(104) %this, i32 noundef %lx) local_unnamed_addr #6 align 2 personality ptr @__gxx_personality_v0 {
entry:
  %_iex_throw_s = alloca %"class.std::__cxx11::basic_stringstream", align 8
  %cmp = icmp sgt i32 %lx, -1
  %_sizeY.i.i = getelementptr inbounds i8, ptr %this, i64 88
  %0 = load i64, ptr %_sizeY.i.i, align 8
  %conv.i = trunc i64 %0 to i32
  %cmp2.not = icmp sgt i32 %conv.i, %lx
  %or.cond = select i1 %cmp, i1 %cmp2.not, i1 false
  br i1 %or.cond, label %if.end, label %do.body

do.body:                                          ; preds = %entry
  tail call void @_Z13iex_debugTrapv()
  call void @_ZNSt7__cxx1118basic_stringstreamIcSt11char_traitsIcESaIcEEC1Ev(ptr noundef nonnull align 8 dereferenceable(128) %_iex_throw_s)
  %add.ptr = getelementptr inbounds i8, ptr %_iex_throw_s, i64 16
  %call3 = invoke noundef nonnull align 8 dereferenceable(8) ptr @_ZStlsISt11char_traitsIcEERSt13basic_ostreamIcT_ES5_PKc(ptr noundef nonnull align 8 dereferenceable(8) %add.ptr, ptr noundef nonnull @.str.4)
          to label %invoke.cont unwind label %lpad

invoke.cont:                                      ; preds = %do.body
  %call5 = invoke noundef nonnull align 8 dereferenceable(8) ptr @_ZNSolsEi(ptr noundef nonnull align 8 dereferenceable(8) %call3, i32 noundef %lx)
          to label %invoke.cont4 unwind label %lpad

invoke.cont4:                                     ; preds = %invoke.cont
  %call7 = invoke noundef nonnull align 8 dereferenceable(8) ptr @_ZStlsISt11char_traitsIcEERSt13basic_ostreamIcT_ES5_PKc(ptr noundef nonnull align 8 dereferenceable(8) %call5, ptr noundef nonnull @.str.5)
          to label %invoke.cont6 unwind label %lpad

invoke.cont6:                                     ; preds = %invoke.cont4
  %exception = call ptr @__cxa_allocate_exception(i64 72) #22
  invoke void @_ZN7Iex_3_26ArgExcC1ERNSt7__cxx1118basic_stringstreamIcSt11char_traitsIcESaIcEEE(ptr noundef nonnull align 8 dereferenceable(72) %exception, ptr noundef nonnull align 8 dereferenceable(128) %_iex_throw_s)
          to label %invoke.cont9 unwind label %lpad8

invoke.cont9:                                     ; preds = %invoke.cont6
  invoke void @__cxa_throw(ptr nonnull %exception, ptr nonnull @_ZTIN7Iex_3_26ArgExcE, ptr nonnull @_ZN7Iex_3_26ArgExcD1Ev) #25
          to label %unreachable unwind label %lpad

lpad:                                             ; preds = %invoke.cont9, %invoke.cont4, %invoke.cont, %do.body
  %1 = landingpad { ptr, i32 }
          cleanup
  br label %ehcleanup

lpad8:                                            ; preds = %invoke.cont6
  %2 = landingpad { ptr, i32 }
          cleanup
  call void @__cxa_free_exception(ptr %exception) #22
  br label %ehcleanup

ehcleanup:                                        ; preds = %lpad8, %lpad
  %.pn = phi { ptr, i32 } [ %1, %lpad ], [ %2, %lpad8 ]
  call void @_ZNSt7__cxx1118basic_stringstreamIcSt11char_traitsIcESaIcEED1Ev(ptr noundef nonnull align 8 dereferenceable(128) %_iex_throw_s) #22
  resume { ptr, i32 } %.pn

if.end:                                           ; preds = %entry
  %_dataWindow = getelementptr inbounds i8, ptr %this, i64 8
  %3 = load i32, ptr %_dataWindow, align 8
  %max = getelementptr inbounds i8, ptr %this, i64 16
  %4 = load i32, ptr %max, align 8
  %cmp.i = icmp slt i32 %4, %3
  br i1 %cmp.i, label %_ZN7Imf_3_212_GLOBAL__N_19levelSizeEiiiNS_17LevelRoundingModeE.exit, label %if.end.i

if.end.i:                                         ; preds = %if.end
  %_levelRoundingMode = getelementptr inbounds i8, ptr %this, i64 28
  %5 = load i32, ptr %_levelRoundingMode, align 4
  %sub.i = sub nsw i32 %4, %3
  %add.i = add nsw i32 %sub.i, 1
  %shl.i = shl nuw i32 1, %lx
  %div.i = sdiv i32 %add.i, %shl.i
  %cmp1.i = icmp eq i32 %5, 1
  %mul5.i = shl i32 %div.i, %lx
  %cmp2.not.i = icmp sle i32 %mul5.i, %sub.i
  %or.cond.not.i = select i1 %cmp1.i, i1 %cmp2.not.i, i1 false
  %add4.i = zext i1 %or.cond.not.i to i32
  %spec.select.i = add nsw i32 %div.i, %add4.i
  %.sroa.speculated.i = tail call i32 @llvm.smax.i32(i32 %spec.select.i, i32 1)
  br label %_ZN7Imf_3_212_GLOBAL__N_19levelSizeEiiiNS_17LevelRoundingModeE.exit

_ZN7Imf_3_212_GLOBAL__N_19levelSizeEiiiNS_17LevelRoundingModeE.exit: ; preds = %if.end, %if.end.i
  %retval.0.i = phi i32 [ %.sroa.speculated.i, %if.end.i ], [ 0, %if.end ]
  ret i32 %retval.0.i

unreachable:                                      ; preds = %invoke.cont9
  unreachable
}